; Function Attrs: mustprogress uwtable
define hidden noundef zeroext i1 @_ZN10duckdb_re26Regexp10MimicsPCREEv(ptr noundef nonnull align 8 dereferenceable(40) %0) local_unnamed_addr #0 align 2 personality ptr @__gxx_personality_v0 {
  %2 = alloca %"class.duckdb_re2::PCREWalker", align 8
  call void @llvm.lifetime.start.p0(i64 96, ptr nonnull %2) #17
  store ptr getelementptr inbounds nuw inrange(-16, 48) (i8, ptr @_ZTVN10duckdb_re26Regexp6WalkerIbEE, i64 16), ptr %2, align 8, !tbaa !20
  %3 = getelementptr inbounds nuw i8, ptr %2, i64 8
  call void @llvm.memset.p0.i64(ptr noundef nonnull align 8 dereferenceable(80) %3, i8 0, i64 80, i1 false)
  call void @_ZNSt11_Deque_baseIN10duckdb_re29WalkStateIbEESaIS2_EE17_M_initialize_mapEm(ptr noundef nonnull align 8 dereferenceable(80) %3, i64 noundef 0)
  %4 = getelementptr inbounds nuw i8, ptr %2, i64 88
  store i8 0, ptr %4, align 8, !tbaa !22
  store ptr getelementptr inbounds nuw inrange(-16, 48) (i8, ptr @_ZTVN10duckdb_re210PCREWalkerE, i64 16), ptr %2, align 8, !tbaa !20
  %5 = getelementptr inbounds nuw i8, ptr %2, i64 92
  store i32 1000000, ptr %5, align 4, !tbaa !34
  %6 = invoke noundef zeroext i1 @_ZN10duckdb_re26Regexp6WalkerIbE12WalkInternalEPS0_bb(ptr noundef nonnull align 8 dereferenceable(96) %2, ptr noundef nonnull %0, i1 noundef zeroext true, i1 noundef zeroext true)
          to label %_ZN10duckdb_re26Regexp6WalkerIbE4WalkEPS0_b.exit unwind label %23

_ZN10duckdb_re26Regexp6WalkerIbE4WalkEPS0_b.exit: ; preds = %1
  store ptr getelementptr inbounds nuw inrange(-16, 48) (i8, ptr @_ZTVN10duckdb_re26Regexp6WalkerIbEE, i64 16), ptr %2, align 8, !tbaa !20
  invoke void @_ZN10duckdb_re26Regexp6WalkerIbE5ResetEv(ptr noundef nonnull align 8 dereferenceable(96) %2)
          to label %7 unwind label %20

7:                                                ; preds = %_ZN10duckdb_re26Regexp6WalkerIbE4WalkEPS0_b.exit
  %8 = load ptr, ptr %3, align 8, !tbaa !35
  %.not.i.i.i.i = icmp eq ptr %8, null
  br i1 %.not.i.i.i.i, label %_ZN10duckdb_re26Regexp6WalkerIbED2Ev.exit, label %9

9:                                                ; preds = %7
  %10 = getelementptr inbounds nuw i8, ptr %2, i64 80
  %11 = getelementptr inbounds nuw i8, ptr %2, i64 48
  %12 = load ptr, ptr %11, align 8, !tbaa !36
  %13 = load ptr, ptr %10, align 8, !tbaa !37
  %14 = getelementptr inbounds nuw i8, ptr %13, i64 8
  %15 = icmp ult ptr %12, %14
  br i1 %15, label %.lr.ph.i.i.i.i.i, label %_ZNSt11_Deque_baseIN10duckdb_re29WalkStateIbEESaIS2_EE16_M_destroy_nodesEPPS2_S6_.exit.i.i.i.i

.lr.ph.i.i.i.i.i:                                 ; preds = %9, %.lr.ph.i.i.i.i.i
  %.06.i.i.i.i.i = phi ptr [ %17, %.lr.ph.i.i.i.i.i ], [ %12, %9 ]
  %16 = load ptr, ptr %.06.i.i.i.i.i, align 8, !tbaa !38
  call void @_ZdlPv(ptr noundef %16) #18
  %17 = getelementptr inbounds nuw i8, ptr %.06.i.i.i.i.i, i64 8
  %18 = icmp ult ptr %.06.i.i.i.i.i, %13
  br i1 %18, label %.lr.ph.i.i.i.i.i, label %_ZNSt11_Deque_baseIN10duckdb_re29WalkStateIbEESaIS2_EE16_M_destroy_nodesEPPS2_S6_.exit.loopexit.i.i.i.i, !llvm.loop !39

_ZNSt11_Deque_baseIN10duckdb_re29WalkStateIbEESaIS2_EE16_M_destroy_nodesEPPS2_S6_.exit.loopexit.i.i.i.i: ; preds = %.lr.ph.i.i.i.i.i
  %.pre.i.i.i.i = load ptr, ptr %3, align 8, !tbaa !35
  br label %_ZNSt11_Deque_baseIN10duckdb_re29WalkStateIbEESaIS2_EE16_M_destroy_nodesEPPS2_S6_.exit.i.i.i.i

_ZNSt11_Deque_baseIN10duckdb_re29WalkStateIbEESaIS2_EE16_M_destroy_nodesEPPS2_S6_.exit.i.i.i.i: ; preds = %_ZNSt11_Deque_baseIN10duckdb_re29WalkStateIbEESaIS2_EE16_M_destroy_nodesEPPS2_S6_.exit.loopexit.i.i.i.i, %9
  %19 = phi ptr [ %.pre.i.i.i.i, %_ZNSt11_Deque_baseIN10duckdb_re29WalkStateIbEESaIS2_EE16_M_destroy_nodesEPPS2_S6_.exit.loopexit.i.i.i.i ], [ %8, %9 ]
  call void @_ZdlPv(ptr noundef %19) #18
  br label %_ZN10duckdb_re26Regexp6WalkerIbED2Ev.exit

20:                                               ; preds = %_ZN10duckdb_re26Regexp6WalkerIbE4WalkEPS0_b.exit
  %21 = landingpad { ptr, i32 }
          catch ptr null
  %22 = extractvalue { ptr, i32 } %21, 0
  call void @__clang_call_terminate(ptr %22) #19
  unreachable

_ZN10duckdb_re26Regexp6WalkerIbED2Ev.exit:        ; preds = %7, %_ZNSt11_Deque_baseIN10duckdb_re29WalkStateIbEESaIS2_EE16_M_destroy_nodesEPPS2_S6_.exit.i.i.i.i
  call void @llvm.lifetime.end.p0(i64 96, ptr nonnull %2) #17
  ret i1 %6

23:                                               ; preds = %1
  %24 = landingpad { ptr, i32 }
          cleanup
  call void @_ZN10duckdb_re26Regexp6WalkerIbED2Ev(ptr noundef nonnull align 8 dereferenceable(96) %2) #17
  call void @llvm.lifetime.end.p0(i64 96, ptr nonnull %2) #17
  resume { ptr, i32 } %24
}